target datalayout = "e-m:e-p270:32:32-p271:32:32-p272:64:64-i64:64-i128:128-f80:128-n8:16:32:64-S128"
target triple = "x86_64-pc-linux-gnu"

%"class.cv::flann::Index" = type { ptr, i32, i32, i32, ptr, %"class.cv::Mat" }
%"class.cv::Mat" = type { i32, i32, i32, i32, ptr, ptr, ptr, ptr, ptr, ptr, %"struct.cv::MatSize", %"struct.cv::MatStep" }
%"struct.cv::MatSize" = type { ptr }
%"struct.cv::MatStep" = type { ptr, [2 x i64] }

; Function Attrs: mustprogress nounwind uwtable
define void @_ZN2cv5flann5IndexC2Ev(ptr noundef nonnull align 8 dereferenceable(128) %0) unnamed_addr #4 align 2 {
  %2 = alloca ptr, align 8
  store ptr %0, ptr %2, align 8, !tbaa !106
  %3 = load ptr, ptr %2, align 8
  store ptr getelementptr inbounds inrange(-16, 64) ({ [10 x ptr] }, ptr @_ZTVN2cv5flann5IndexE, i32 0, i32 0, i32 2), ptr %3, align 8, !tbaa !74
  %4 = getelementptr inbounds nuw %"class.cv::flann::Index", ptr %3, i32 0, i32 5
  call void @_ZN2cv3MatC1Ev(ptr noundef nonnull align 8 dereferenceable(96) %4) #3
  %5 = getelementptr inbounds nuw %"class.cv::flann::Index", ptr %3, i32 0, i32 4
  store ptr null, ptr %5, align 8, !tbaa !108
  %6 = getelementptr inbounds nuw %"class.cv::flann::Index", ptr %3, i32 0, i32 3
  store i32 5, ptr %6, align 8, !tbaa !117
  %7 = getelementptr inbounds nuw %"class.cv::flann::Index", ptr %3, i32 0, i32 2
  store i32 0, ptr %7, align 4, !tbaa !118
  %8 = getelementptr inbounds nuw %"class.cv::flann::Index", ptr %3, i32 0, i32 1
  store i32 1, ptr %8, align 8, !tbaa !119
  ret void
}