; Function Attrs: mustprogress nounwind uwtable
define void @_ZN2cv5flann5IndexC2Ev(ptr noundef nonnull align 8 dereferenceable(128) initializes((0, 8)) %0) unnamed_addr #3 align 2 {
  store ptr getelementptr inbounds nuw inrange(-16, 64) (i8, ptr @_ZTVN2cv5flann5IndexE, i64 16), ptr %0, align 8, !tbaa !35
  %2 = getelementptr inbounds nuw i8, ptr %0, i64 32
  tail call void @_ZN2cv3MatC1Ev(ptr noundef nonnull align 8 dereferenceable(96) %2) #34
  %3 = getelementptr inbounds nuw i8, ptr %0, i64 24
  store ptr null, ptr %3, align 8, !tbaa !74
  %4 = getelementptr inbounds nuw i8, ptr %0, i64 16
  store i32 5, ptr %4, align 8, !tbaa !84
  %5 = getelementptr inbounds nuw i8, ptr %0, i64 12
  store i32 0, ptr %5, align 4, !tbaa !85
  %6 = getelementptr inbounds nuw i8, ptr %0, i64 8
  store i32 1, ptr %6, align 8, !tbaa !86
  ret void
}